target datalayout = "e-m:e-p270:32:32-p271:32:32-p272:64:64-i64:64-i128:128-f80:128-n8:16:32:64-S128"
target triple = "x86_64-pc-linux-gnu"

%struct.H5O_loc_t = type { ptr, i64, i8 }

@H5O_init_g = external global i8, align 1
@H5_libterm_g = external global i8, align 1
@.str = private unnamed_addr constant [102 x i8] c"generated/home/dtcxzyw/WorkSpace/Projects/compilers/llvm-opt-benchmark/bench/hdf5/hdf5/src/H5Oflush.c\00", align 1
@H5E_FUNC_g = external global i64, align 8
@H5E_CANTINIT_g = external global i64, align 8
@.str.1 = private unnamed_addr constant [32 x i8] c"interface initialization failed\00", align 1
@H5E_OHDR_g = external global i64, align 8
@H5E_CANTFLUSH_g = external global i64, align 8
@__func__.H5O_flush_common = private unnamed_addr constant [17 x i8] c"H5O_flush_common\00", align 1
@.str.7 = private unnamed_addr constant [32 x i8] c"unable to flush object metadata\00", align 1
@.str.8 = private unnamed_addr constant [32 x i8] c"unable to flush tagged metadata\00", align 1
@.str.9 = private unnamed_addr constant [35 x i8] c"unable to do object flush callback\00", align 1

; Function Attrs: nounwind uwtable
define i32 @H5O_flush_common(ptr noundef %0, i64 noundef %1) #0 {
  %3 = alloca ptr, align 8
  %4 = alloca i64, align 8
  %5 = alloca i64, align 8
  %6 = alloca i32, align 4
  %7 = alloca i8, align 1
  store ptr %0, ptr %3, align 8, !tbaa !3
  store i64 %1, ptr %4, align 8, !tbaa !8
  call void @llvm.lifetime.start.p0(i64 8, ptr %5) #4
  store i64 0, ptr %5, align 8, !tbaa !8
  call void @llvm.lifetime.start.p0(i64 4, ptr %6) #4
  store i32 0, ptr %6, align 4, !tbaa !10
  call void @llvm.lifetime.start.p0(i64 1, ptr %7) #4
  store i8 0, ptr %7, align 1, !tbaa !12
  %8 = load i8, ptr @H5O_init_g, align 1, !tbaa !12, !range !14, !noundef !15
  %9 = trunc i8 %8 to i1
  br i1 %9, label %14, label %10

10:                                               ; preds = %2
  %11 = load i8, ptr @H5_libterm_g, align 1, !tbaa !12, !range !14, !noundef !15
  %12 = trunc i8 %11 to i1
  %13 = xor i1 %12, true
  br label %14

14:                                               ; preds = %10, %2
  %15 = phi i1 [ false, %2 ], [ %13, %10 ]
  %16 = xor i1 %15, true
  %17 = xor i1 %16, true
  %18 = zext i1 %17 to i32
  %19 = sext i32 %18 to i64
  %20 = call i64 @llvm.expect.i64(i64 %19, i64 0)
  %21 = icmp ne i64 %20, 0
  br i1 %21, label %22, label %45

22:                                               ; preds = %14
  store i8 1, ptr @H5O_init_g, align 1, !tbaa !12
  %23 = call i32 @H5O__init_package()
  %24 = icmp slt i32 %23, 0
  br i1 %24, label %25, label %44

25:                                               ; preds = %22
  store i8 0, ptr @H5O_init_g, align 1, !tbaa !12
  br label %26

26:                                               ; preds = %25
  br label %27

27:                                               ; preds = %26
  br label %28

28:                                               ; preds = %27
  %29 = load i64, ptr @H5E_FUNC_g, align 8, !tbaa !8
  %30 = load i64, ptr @H5E_CANTINIT_g, align 8, !tbaa !8
  %31 = call i32 (ptr, ptr, i32, i64, i64, ptr, ...) @H5E_printf_stack(ptr noundef @.str, ptr noundef @__func__.H5O_flush_common, i32 noundef 113, i64 noundef %29, i64 noundef %30, ptr noundef @.str.1)
  br label %32

32:                                               ; preds = %28
  br label %33

33:                                               ; preds = %32
  store i8 1, ptr %7, align 1, !tbaa !12
  %34 = load i8, ptr %7, align 1, !tbaa !12, !range !14, !noundef !15
  %35 = trunc i8 %34 to i1
  %36 = zext i1 %35 to i8
  store i8 %36, ptr %7, align 1, !tbaa !12
  br label %37

37:                                               ; preds = %33
  br label %38

38:                                               ; preds = %37
  br label %39

39:                                               ; preds = %38
  store i32 -1, ptr %6, align 4, !tbaa !10
  br label %136

40:                                               ; No predecessors!
  br label %41

41:                                               ; preds = %40
  br label %42

42:                                               ; preds = %41
  br label %43

43:                                               ; preds = %42
  br label %44

44:                                               ; preds = %43, %22
  br label %45

45:                                               ; preds = %44, %14
  %46 = load i8, ptr @H5O_init_g, align 1, !tbaa !12, !range !14, !noundef !15
  %47 = trunc i8 %46 to i1
  br i1 %47, label %52, label %48

48:                                               ; preds = %45
  %49 = load i8, ptr @H5_libterm_g, align 1, !tbaa !12, !range !14, !noundef !15
  %50 = trunc i8 %49 to i1
  %51 = xor i1 %50, true
  br label %52

52:                                               ; preds = %48, %45
  %53 = phi i1 [ true, %45 ], [ %51, %48 ]
  %54 = xor i1 %53, true
  %55 = xor i1 %54, true
  %56 = zext i1 %55 to i32
  %57 = sext i32 %56 to i64
  %58 = call i64 @llvm.expect.i64(i64 %57, i64 1)
  %59 = icmp ne i64 %58, 0
  br i1 %59, label %60, label %137

60:                                               ; preds = %52
  %61 = load ptr, ptr %3, align 8, !tbaa !3
  %62 = call i32 @H5O__oh_tag(ptr noundef %61, ptr noundef %5)
  %63 = icmp slt i32 %62, 0
  br i1 %63, label %64, label %83

64:                                               ; preds = %60
  br label %65

65:                                               ; preds = %64
  br label %66

66:                                               ; preds = %65
  br label %67

67:                                               ; preds = %66
  %68 = load i64, ptr @H5E_OHDR_g, align 8, !tbaa !8
  %69 = load i64, ptr @H5E_CANTFLUSH_g, align 8, !tbaa !8
  %70 = call i32 (ptr, ptr, i32, i64, i64, ptr, ...) @H5E_printf_stack(ptr noundef @.str, ptr noundef @__func__.H5O_flush_common, i32 noundef 117, i64 noundef %68, i64 noundef %69, ptr noundef @.str.7)
  br label %71

71:                                               ; preds = %67
  br label %72

72:                                               ; preds = %71
  store i8 1, ptr %7, align 1, !tbaa !12
  %73 = load i8, ptr %7, align 1, !tbaa !12, !range !14, !noundef !15
  %74 = trunc i8 %73 to i1
  %75 = zext i1 %74 to i8
  store i8 %75, ptr %7, align 1, !tbaa !12
  br label %76

76:                                               ; preds = %72
  br label %77

77:                                               ; preds = %76
  br label %78

78:                                               ; preds = %77
  store i32 -1, ptr %6, align 4, !tbaa !10
  br label %136

79:                                               ; No predecessors!
  br label %80

80:                                               ; preds = %79
  br label %81

81:                                               ; preds = %80
  br label %82

82:                                               ; preds = %81
  br label %83

83:                                               ; preds = %82, %60
  %84 = load ptr, ptr %3, align 8, !tbaa !3
  %85 = getelementptr inbounds nuw %struct.H5O_loc_t, ptr %84, i32 0, i32 0
  %86 = load ptr, ptr %85, align 8, !tbaa !16
  %87 = load i64, ptr %5, align 8, !tbaa !8
  %88 = call i32 @H5F_flush_tagged_metadata(ptr noundef %86, i64 noundef %87)
  %89 = icmp slt i32 %88, 0
  br i1 %89, label %90, label %109

90:                                               ; preds = %83
  br label %91

91:                                               ; preds = %90
  br label %92

92:                                               ; preds = %91
  br label %93

93:                                               ; preds = %92
  %94 = load i64, ptr @H5E_OHDR_g, align 8, !tbaa !8
  %95 = load i64, ptr @H5E_CANTFLUSH_g, align 8, !tbaa !8
  %96 = call i32 (ptr, ptr, i32, i64, i64, ptr, ...) @H5E_printf_stack(ptr noundef @.str, ptr noundef @__func__.H5O_flush_common, i32 noundef 121, i64 noundef %94, i64 noundef %95, ptr noundef @.str.8)
  br label %97

97:                                               ; preds = %93
  br label %98

98:                                               ; preds = %97
  store i8 1, ptr %7, align 1, !tbaa !12
  %99 = load i8, ptr %7, align 1, !tbaa !12, !range !14, !noundef !15
  %100 = trunc i8 %99 to i1
  %101 = zext i1 %100 to i8
  store i8 %101, ptr %7, align 1, !tbaa !12
  br label %102

102:                                              ; preds = %98
  br label %103

103:                                              ; preds = %102
  br label %104

104:                                              ; preds = %103
  store i32 -1, ptr %6, align 4, !tbaa !10
  br label %136

105:                                              ; No predecessors!
  br label %106

106:                                              ; preds = %105
  br label %107

107:                                              ; preds = %106
  br label %108

108:                                              ; preds = %107
  br label %109

109:                                              ; preds = %108, %83
  %110 = load ptr, ptr %3, align 8, !tbaa !3
  %111 = getelementptr inbounds nuw %struct.H5O_loc_t, ptr %110, i32 0, i32 0
  %112 = load ptr, ptr %111, align 8, !tbaa !16
  %113 = load i64, ptr %4, align 8, !tbaa !8
  %114 = call i32 @H5F_object_flush_cb(ptr noundef %112, i64 noundef %113)
  %115 = icmp slt i32 %114, 0
  br i1 %115, label %116, label %135

116:                                              ; preds = %109
  br label %117

117:                                              ; preds = %116
  br label %118

118:                                              ; preds = %117
  br label %119

119:                                              ; preds = %118
  %120 = load i64, ptr @H5E_OHDR_g, align 8, !tbaa !8
  %121 = load i64, ptr @H5E_CANTFLUSH_g, align 8, !tbaa !8
  %122 = call i32 (ptr, ptr, i32, i64, i64, ptr, ...) @H5E_printf_stack(ptr noundef @.str, ptr noundef @__func__.H5O_flush_common, i32 noundef 125, i64 noundef %120, i64 noundef %121, ptr noundef @.str.9)
  br label %123

123:                                              ; preds = %119
  br label %124

124:                                              ; preds = %123
  store i8 1, ptr %7, align 1, !tbaa !12
  %125 = load i8, ptr %7, align 1, !tbaa !12, !range !14, !noundef !15
  %126 = trunc i8 %125 to i1
  %127 = zext i1 %126 to i8
  store i8 %127, ptr %7, align 1, !tbaa !12
  br label %128

128:                                              ; preds = %124
  br label %129

129:                                              ; preds = %128
  br label %130

130:                                              ; preds = %129
  store i32 -1, ptr %6, align 4, !tbaa !10
  br label %136

131:                                              ; No predecessors!
  br label %132

132:                                              ; preds = %131
  br label %133

133:                                              ; preds = %132
  br label %134

134:                                              ; preds = %133
  br label %135

135:                                              ; preds = %134, %109
  br label %136

136:                                              ; preds = %135, %130, %104, %78, %39
  br label %137

137:                                              ; preds = %136, %52
  %138 = load i32, ptr %6, align 4, !tbaa !10
  call void @llvm.lifetime.end.p0(i64 1, ptr %7) #4
  call void @llvm.lifetime.end.p0(i64 4, ptr %6) #4
  call void @llvm.lifetime.end.p0(i64 8, ptr %5) #4
  ret i32 %138
}