; Function Attrs: nounwind uwtable
define range(i32 -1, 1) i32 @H5O_flush_common(ptr noundef %0, i64 noundef %1) local_unnamed_addr #0 {
  %3 = alloca i64, align 8
  call void @llvm.lifetime.start.p0(i64 8, ptr nonnull %3) #3
  store i64 0, ptr %3, align 8, !tbaa !10
  %4 = load i8, ptr @H5O_init_g, align 1, !tbaa !3, !range !7, !noundef !8
  %5 = trunc nuw i8 %4 to i1
  %6 = load i8, ptr @H5_libterm_g, align 1, !range !7
  %7 = trunc nuw i8 %6 to i1
  %8 = select i1 %5, i1 true, i1 %7
  br i1 %8, label %16, label %9, !prof !9

9:                                                ; preds = %2
  store i8 1, ptr @H5O_init_g, align 1, !tbaa !3
  %10 = tail call i32 @H5O__init_package() #3
  %11 = icmp slt i32 %10, 0
  br i1 %11, label %12, label %._crit_edge

._crit_edge:                                      ; preds = %9
  %.pre = load i8, ptr @H5O_init_g, align 1, !tbaa !3, !range !7
  %.pre8 = load i8, ptr @H5_libterm_g, align 1, !range !7
  %.pre9 = trunc nuw i8 %.pre to i1
  %.pre10 = trunc nuw i8 %.pre8 to i1
  br label %16

12:                                               ; preds = %9
  store i8 0, ptr @H5O_init_g, align 1, !tbaa !3
  %13 = load i64, ptr @H5E_FUNC_g, align 8, !tbaa !10
  %14 = load i64, ptr @H5E_CANTINIT_g, align 8, !tbaa !10
  %15 = tail call i32 (ptr, ptr, i32, i64, i64, ptr, ...) @H5E_printf_stack(ptr noundef nonnull @.str, ptr noundef nonnull @__func__.H5O_flush_common, i32 noundef 113, i64 noundef %13, i64 noundef %14, ptr noundef nonnull @.str.1) #3
  br label %43

16:                                               ; preds = %._crit_edge, %2
  %.pre-phi11 = phi i1 [ %.pre10, %._crit_edge ], [ %7, %2 ]
  %.pre-phi = phi i1 [ %.pre9, %._crit_edge ], [ %5, %2 ]
  %17 = xor i1 %.pre-phi11, true
  %18 = select i1 %.pre-phi, i1 true, i1 %17
  br i1 %18, label %19, label %43, !prof !9

19:                                               ; preds = %16
  %20 = call fastcc i32 @H5O__oh_tag(ptr noundef %0, ptr noundef %3)
  %21 = icmp slt i32 %20, 0
  br i1 %21, label %22, label %26

22:                                               ; preds = %19
  %23 = load i64, ptr @H5E_OHDR_g, align 8, !tbaa !10
  %24 = load i64, ptr @H5E_CANTFLUSH_g, align 8, !tbaa !10
  %25 = tail call i32 (ptr, ptr, i32, i64, i64, ptr, ...) @H5E_printf_stack(ptr noundef nonnull @.str, ptr noundef nonnull @__func__.H5O_flush_common, i32 noundef 117, i64 noundef %23, i64 noundef %24, ptr noundef nonnull @.str.7) #3
  br label %43

26:                                               ; preds = %19
  %27 = load ptr, ptr %0, align 8, !tbaa !12
  %28 = load i64, ptr %3, align 8, !tbaa !10
  %29 = tail call i32 @H5F_flush_tagged_metadata(ptr noundef %27, i64 noundef %28) #3
  %30 = icmp slt i32 %29, 0
  br i1 %30, label %31, label %35

31:                                               ; preds = %26
  %32 = load i64, ptr @H5E_OHDR_g, align 8, !tbaa !10
  %33 = load i64, ptr @H5E_CANTFLUSH_g, align 8, !tbaa !10
  %34 = tail call i32 (ptr, ptr, i32, i64, i64, ptr, ...) @H5E_printf_stack(ptr noundef nonnull @.str, ptr noundef nonnull @__func__.H5O_flush_common, i32 noundef 121, i64 noundef %32, i64 noundef %33, ptr noundef nonnull @.str.8) #3
  br label %43

35:                                               ; preds = %26
  %36 = load ptr, ptr %0, align 8, !tbaa !12
  %37 = tail call i32 @H5F_object_flush_cb(ptr noundef %36, i64 noundef %1) #3
  %38 = icmp slt i32 %37, 0
  br i1 %38, label %39, label %43

39:                                               ; preds = %35
  %40 = load i64, ptr @H5E_OHDR_g, align 8, !tbaa !10
  %41 = load i64, ptr @H5E_CANTFLUSH_g, align 8, !tbaa !10
  %42 = tail call i32 (ptr, ptr, i32, i64, i64, ptr, ...) @H5E_printf_stack(ptr noundef nonnull @.str, ptr noundef nonnull @__func__.H5O_flush_common, i32 noundef 125, i64 noundef %40, i64 noundef %41, ptr noundef nonnull @.str.9) #3
  br label %43

43:                                               ; preds = %12, %22, %31, %39, %35, %16
  %.0 = phi i32 [ -1, %12 ], [ -1, %22 ], [ -1, %31 ], [ -1, %39 ], [ 0, %35 ], [ 0, %16 ]
  call void @llvm.lifetime.end.p0(i64 8, ptr nonnull %3) #3
  ret i32 %.0
}